target datalayout = "e-m:e-p270:32:32-p271:32:32-p272:64:64-i64:64-i128:128-f80:128-n8:16:32:64-S128"
target triple = "x86_64-pc-linux-gnu"

; Function Attrs: nounwind uwtable
define hidden void @av1_highbd_dr_prediction_z2_c(ptr noundef %0, i64 noundef %1, i32 noundef %2, i32 noundef %3, ptr noundef %4, ptr noundef %5, i32 noundef %6, i32 noundef %7, i32 noundef %8, i32 noundef %9, i32 noundef %10) #0 {
  %12 = alloca ptr, align 8
  %13 = alloca i64, align 8
  %14 = alloca i32, align 4
  %15 = alloca i32, align 4
  %16 = alloca ptr, align 8
  %17 = alloca ptr, align 8
  %18 = alloca i32, align 4
  %19 = alloca i32, align 4
  %20 = alloca i32, align 4
  %21 = alloca i32, align 4
  %22 = alloca i32, align 4
  %23 = alloca i32, align 4
  %24 = alloca i32, align 4
  %25 = alloca i32, align 4
  %26 = alloca i32, align 4
  %27 = alloca i32, align 4
  %28 = alloca i32, align 4
  %29 = alloca i32, align 4
  %30 = alloca i32, align 4
  %31 = alloca i32, align 4
  %32 = alloca i32, align 4
  %33 = alloca i32, align 4
  %34 = alloca i32, align 4
  %35 = alloca i32, align 4
  store ptr %0, ptr %12, align 8
  store i64 %1, ptr %13, align 8
  store i32 %2, ptr %14, align 4
  store i32 %3, ptr %15, align 4
  store ptr %4, ptr %16, align 8
  store ptr %5, ptr %17, align 8
  store i32 %6, ptr %18, align 4
  store i32 %7, ptr %19, align 4
  store i32 %8, ptr %20, align 4
  store i32 %9, ptr %21, align 4
  store i32 %10, ptr %22, align 4
  %36 = load i32, ptr %18, align 4
  %37 = shl i32 1, %36
  %38 = sub nsw i32 0, %37
  store i32 %38, ptr %23, align 4
  %39 = load i32, ptr %19, align 4
  %40 = shl i32 1, %39
  %41 = sub nsw i32 0, %40
  store i32 %41, ptr %24, align 4
  %42 = load i32, ptr %18, align 4
  %43 = sub nsw i32 6, %42
  store i32 %43, ptr %25, align 4
  %44 = load i32, ptr %19, align 4
  %45 = sub nsw i32 6, %44
  store i32 %45, ptr %26, align 4
  store i32 0, ptr %27, align 4
  br label %46

46:                                               ; preds = %153, %11
  %47 = load i32, ptr %27, align 4
  %48 = load i32, ptr %15, align 4
  %49 = icmp slt i32 %47, %48
  br i1 %49, label %50, label %156

50:                                               ; preds = %46
  store i32 0, ptr %28, align 4
  br label %51

51:                                               ; preds = %146, %50
  %52 = load i32, ptr %28, align 4
  %53 = load i32, ptr %14, align 4
  %54 = icmp slt i32 %52, %53
  br i1 %54, label %55, label %149

55:                                               ; preds = %51
  %56 = load i32, ptr %27, align 4
  %57 = add nsw i32 %56, 1
  store i32 %57, ptr %30, align 4
  %58 = load i32, ptr %28, align 4
  %59 = shl i32 %58, 6
  %60 = load i32, ptr %30, align 4
  %61 = load i32, ptr %20, align 4
  %62 = mul nsw i32 %60, %61
  %63 = sub nsw i32 %59, %62
  store i32 %63, ptr %31, align 4
  %64 = load i32, ptr %31, align 4
  %65 = load i32, ptr %25, align 4
  %66 = ashr i32 %64, %65
  store i32 %66, ptr %32, align 4
  %67 = load i32, ptr %32, align 4
  %68 = load i32, ptr %23, align 4
  %69 = icmp sge i32 %67, %68
  br i1 %69, label %70, label %99

70:                                               ; preds = %55
  %71 = load i32, ptr %31, align 4
  %72 = load i32, ptr %18, align 4
  %73 = shl i32 1, %72
  %74 = mul nsw i32 %71, %73
  %75 = and i32 %74, 63
  %76 = ashr i32 %75, 1
  store i32 %76, ptr %33, align 4
  %77 = load ptr, ptr %16, align 8
  %78 = load i32, ptr %32, align 4
  %79 = sext i32 %78 to i64
  %80 = getelementptr inbounds i16, ptr %77, i64 %79
  %81 = load i16, ptr %80, align 2
  %82 = zext i16 %81 to i32
  %83 = load i32, ptr %33, align 4
  %84 = sub nsw i32 32, %83
  %85 = mul nsw i32 %82, %84
  %86 = load ptr, ptr %16, align 8
  %87 = load i32, ptr %32, align 4
  %88 = add nsw i32 %87, 1
  %89 = sext i32 %88 to i64
  %90 = getelementptr inbounds i16, ptr %86, i64 %89
  %91 = load i16, ptr %90, align 2
  %92 = zext i16 %91 to i32
  %93 = load i32, ptr %33, align 4
  %94 = mul nsw i32 %92, %93
  %95 = add nsw i32 %85, %94
  store i32 %95, ptr %29, align 4
  %96 = load i32, ptr %29, align 4
  %97 = add nsw i32 %96, 16
  %98 = ashr i32 %97, 5
  store i32 %98, ptr %29, align 4
  br label %139

99:                                               ; preds = %55
  %100 = load i32, ptr %28, align 4
  %101 = add nsw i32 %100, 1
  store i32 %101, ptr %31, align 4
  %102 = load i32, ptr %27, align 4
  %103 = shl i32 %102, 6
  %104 = load i32, ptr %31, align 4
  %105 = load i32, ptr %21, align 4
  %106 = mul nsw i32 %104, %105
  %107 = sub nsw i32 %103, %106
  store i32 %107, ptr %30, align 4
  %108 = load i32, ptr %30, align 4
  %109 = load i32, ptr %26, align 4
  %110 = ashr i32 %108, %109
  store i32 %110, ptr %34, align 4
  %111 = load i32, ptr %30, align 4
  %112 = load i32, ptr %19, align 4
  %113 = shl i32 1, %112
  %114 = mul nsw i32 %111, %113
  %115 = and i32 %114, 63
  %116 = ashr i32 %115, 1
  store i32 %116, ptr %35, align 4
  %117 = load ptr, ptr %17, align 8
  %118 = load i32, ptr %34, align 4
  %119 = sext i32 %118 to i64
  %120 = getelementptr inbounds i16, ptr %117, i64 %119
  %121 = load i16, ptr %120, align 2
  %122 = zext i16 %121 to i32
  %123 = load i32, ptr %35, align 4
  %124 = sub nsw i32 32, %123
  %125 = mul nsw i32 %122, %124
  %126 = load ptr, ptr %17, align 8
  %127 = load i32, ptr %34, align 4
  %128 = add nsw i32 %127, 1
  %129 = sext i32 %128 to i64
  %130 = getelementptr inbounds i16, ptr %126, i64 %129
  %131 = load i16, ptr %130, align 2
  %132 = zext i16 %131 to i32
  %133 = load i32, ptr %35, align 4
  %134 = mul nsw i32 %132, %133
  %135 = add nsw i32 %125, %134
  store i32 %135, ptr %29, align 4
  %136 = load i32, ptr %29, align 4
  %137 = add nsw i32 %136, 16
  %138 = ashr i32 %137, 5
  store i32 %138, ptr %29, align 4
  br label %139

139:                                              ; preds = %99, %70
  %140 = load i32, ptr %29, align 4
  %141 = trunc i32 %140 to i16
  %142 = load ptr, ptr %12, align 8
  %143 = load i32, ptr %28, align 4
  %144 = sext i32 %143 to i64
  %145 = getelementptr inbounds i16, ptr %142, i64 %144
  store i16 %141, ptr %145, align 2
  br label %146

146:                                              ; preds = %139
  %147 = load i32, ptr %28, align 4
  %148 = add nsw i32 %147, 1
  store i32 %148, ptr %28, align 4
  br label %51, !llvm.loop !16

149:                                              ; preds = %51
  %150 = load i64, ptr %13, align 8
  %151 = load ptr, ptr %12, align 8
  %152 = getelementptr inbounds i16, ptr %151, i64 %150
  store ptr %152, ptr %12, align 8
  br label %153

153:                                              ; preds = %149
  %154 = load i32, ptr %27, align 4
  %155 = add nsw i32 %154, 1
  store i32 %155, ptr %27, align 4
  br label %46, !llvm.loop !17

156:                                              ; preds = %46
  ret void
}