; Function Attrs: nofree norecurse nosync nounwind memory(read, argmem: readwrite, inaccessiblemem: none) uwtable
define hidden void @av1_highbd_dr_prediction_z2_c(ptr nocapture noundef writeonly %0, i64 noundef %1, i32 noundef %2, i32 noundef %3, ptr nocapture noundef readonly %4, ptr nocapture noundef readonly %5, i32 noundef %6, i32 noundef %7, i32 noundef %8, i32 noundef %9, i32 noundef %10) local_unnamed_addr #2 {
  %.neg53 = shl nsw i32 -1, %6
  %12 = sub nsw i32 6, %6
  %13 = sub nsw i32 6, %7
  %14 = icmp sgt i32 %3, 0
  %15 = icmp sgt i32 %2, 0
  %or.cond = and i1 %14, %15
  br i1 %or.cond, label %.preheader.us.preheader, label %._crit_edge57

.preheader.us.preheader:                          ; preds = %11
  %wide.trip.count = zext nneg i32 %2 to i64
  br label %.preheader.us

.preheader.us:                                    ; preds = %.preheader.us.preheader, %._crit_edge.us
  %.056.us = phi ptr [ %52, %._crit_edge.us ], [ %0, %.preheader.us.preheader ]
  %.04655.us = phi i32 [ %53, %._crit_edge.us ], [ 0, %.preheader.us.preheader ]
  %.neg.us = xor i32 %.04655.us, -1
  %.neg50.us = mul i32 %8, %.neg.us
  %16 = shl i32 %.neg50.us, %6
  %17 = lshr i32 %16, 1
  %18 = and i32 %17, 31
  %19 = sub nuw nsw i32 32, %18
  %20 = shl i32 %.04655.us, 6
  br label %21

21:                                               ; preds = %.preheader.us, %44
  %indvars.iv = phi i64 [ 0, %.preheader.us ], [ %indvars.iv.next, %44 ]
  %22 = trunc nuw nsw i64 %indvars.iv to i32
  %23 = shl i32 %22, 6
  %24 = add i32 %23, %.neg50.us
  %25 = ashr i32 %24, %12
  %.not.us = icmp slt i32 %25, %.neg53
  br i1 %.not.us, label %32, label %26

26:                                               ; preds = %21
  %27 = sext i32 %25 to i64
  %28 = getelementptr inbounds i16, ptr %4, i64 %27
  %29 = load i16, ptr %28, align 2
  %30 = zext i16 %29 to i32
  %31 = mul nuw nsw i32 %19, %30
  br label %44

32:                                               ; preds = %21
  %.neg51.us = xor i32 %22, -1
  %.neg52.us = mul i32 %9, %.neg51.us
  %33 = add i32 %.neg52.us, %20
  %34 = ashr i32 %33, %13
  %35 = shl i32 %.neg52.us, %7
  %36 = lshr i32 %35, 1
  %37 = and i32 %36, 31
  %38 = sext i32 %34 to i64
  %39 = getelementptr inbounds i16, ptr %5, i64 %38
  %40 = load i16, ptr %39, align 2
  %41 = zext i16 %40 to i32
  %42 = sub nuw nsw i32 32, %37
  %43 = mul nuw nsw i32 %42, %41
  br label %44

44:                                               ; preds = %32, %26
  %.sink = phi ptr [ %39, %32 ], [ %28, %26 ]
  %.sink63 = phi i32 [ %37, %32 ], [ %18, %26 ]
  %.sink62 = phi i32 [ %43, %32 ], [ %31, %26 ]
  %45 = getelementptr i8, ptr %.sink, i64 2
  %46 = load i16, ptr %45, align 2
  %47 = zext i16 %46 to i32
  %48 = mul nuw nsw i32 %.sink63, %47
  %49 = add nuw nsw i32 %48, %.sink62
  %.048.in.us = add nuw nsw i32 %49, 16
  %.048.us = lshr i32 %.048.in.us, 5
  %50 = trunc i32 %.048.us to i16
  %51 = getelementptr inbounds i16, ptr %.056.us, i64 %indvars.iv
  store i16 %50, ptr %51, align 2
  %indvars.iv.next = add nuw nsw i64 %indvars.iv, 1
  %exitcond.not = icmp eq i64 %indvars.iv.next, %wide.trip.count
  br i1 %exitcond.not, label %._crit_edge.us, label %21, !llvm.loop !16

._crit_edge.us:                                   ; preds = %44
  %52 = getelementptr inbounds i16, ptr %.056.us, i64 %1
  %53 = add nuw nsw i32 %.04655.us, 1
  %exitcond61.not = icmp eq i32 %53, %3
  br i1 %exitcond61.not, label %._crit_edge57, label %.preheader.us, !llvm.loop !17

._crit_edge57:                                    ; preds = %._crit_edge.us, %11
  ret void
}